target datalayout = "e-m:e-p270:32:32-p271:32:32-p272:64:64-i64:64-i128:128-f80:128-n8:16:32:64-S128"
target triple = "x86_64-pc-linux-gnu"

%struct.nk_color = type { i8, i8, i8, i8 }

; Function Attrs: nounwind uwtable
define i32 @nk_rgba_f(float noundef %0, float noundef %1, float noundef %2, float noundef %3) #0 {
  %5 = alloca %struct.nk_color, align 1
  %6 = alloca float, align 4
  %7 = alloca float, align 4
  %8 = alloca float, align 4
  %9 = alloca float, align 4
  store float %0, ptr %6, align 4, !tbaa !4
  store float %1, ptr %7, align 4, !tbaa !4
  store float %2, ptr %8, align 4, !tbaa !4
  store float %3, ptr %9, align 4, !tbaa !4
  %10 = load float, ptr %6, align 4, !tbaa !4
  %11 = fcmp olt float 1.000000e+00, %10
  br i1 %11, label %12, label %13

12:                                               ; preds = %4
  br label %15

13:                                               ; preds = %4
  %14 = load float, ptr %6, align 4, !tbaa !4
  br label %15

15:                                               ; preds = %13, %12
  %16 = phi float [ 1.000000e+00, %12 ], [ %14, %13 ]
  %17 = fcmp olt float 0.000000e+00, %16
  br i1 %17, label %18, label %26

18:                                               ; preds = %15
  %19 = load float, ptr %6, align 4, !tbaa !4
  %20 = fcmp olt float 1.000000e+00, %19
  br i1 %20, label %21, label %22

21:                                               ; preds = %18
  br label %24

22:                                               ; preds = %18
  %23 = load float, ptr %6, align 4, !tbaa !4
  br label %24

24:                                               ; preds = %22, %21
  %25 = phi float [ 1.000000e+00, %21 ], [ %23, %22 ]
  br label %27

26:                                               ; preds = %15
  br label %27

27:                                               ; preds = %26, %24
  %28 = phi float [ %25, %24 ], [ 0.000000e+00, %26 ]
  %29 = fmul float %28, 2.550000e+02
  %30 = fptoui float %29 to i8
  %31 = getelementptr inbounds nuw %struct.nk_color, ptr %5, i32 0, i32 0
  store i8 %30, ptr %31, align 1, !tbaa !49
  %32 = load float, ptr %7, align 4, !tbaa !4
  %33 = fcmp olt float 1.000000e+00, %32
  br i1 %33, label %34, label %35

34:                                               ; preds = %27
  br label %37

35:                                               ; preds = %27
  %36 = load float, ptr %7, align 4, !tbaa !4
  br label %37

37:                                               ; preds = %35, %34
  %38 = phi float [ 1.000000e+00, %34 ], [ %36, %35 ]
  %39 = fcmp olt float 0.000000e+00, %38
  br i1 %39, label %40, label %48

40:                                               ; preds = %37
  %41 = load float, ptr %7, align 4, !tbaa !4
  %42 = fcmp olt float 1.000000e+00, %41
  br i1 %42, label %43, label %44

43:                                               ; preds = %40
  br label %46

44:                                               ; preds = %40
  %45 = load float, ptr %7, align 4, !tbaa !4
  br label %46

46:                                               ; preds = %44, %43
  %47 = phi float [ 1.000000e+00, %43 ], [ %45, %44 ]
  br label %49

48:                                               ; preds = %37
  br label %49

49:                                               ; preds = %48, %46
  %50 = phi float [ %47, %46 ], [ 0.000000e+00, %48 ]
  %51 = fmul float %50, 2.550000e+02
  %52 = fptoui float %51 to i8
  %53 = getelementptr inbounds nuw %struct.nk_color, ptr %5, i32 0, i32 1
  store i8 %52, ptr %53, align 1, !tbaa !51
  %54 = load float, ptr %8, align 4, !tbaa !4
  %55 = fcmp olt float 1.000000e+00, %54
  br i1 %55, label %56, label %57

56:                                               ; preds = %49
  br label %59

57:                                               ; preds = %49
  %58 = load float, ptr %8, align 4, !tbaa !4
  br label %59

59:                                               ; preds = %57, %56
  %60 = phi float [ 1.000000e+00, %56 ], [ %58, %57 ]
  %61 = fcmp olt float 0.000000e+00, %60
  br i1 %61, label %62, label %70

62:                                               ; preds = %59
  %63 = load float, ptr %8, align 4, !tbaa !4
  %64 = fcmp olt float 1.000000e+00, %63
  br i1 %64, label %65, label %66

65:                                               ; preds = %62
  br label %68

66:                                               ; preds = %62
  %67 = load float, ptr %8, align 4, !tbaa !4
  br label %68

68:                                               ; preds = %66, %65
  %69 = phi float [ 1.000000e+00, %65 ], [ %67, %66 ]
  br label %71

70:                                               ; preds = %59
  br label %71

71:                                               ; preds = %70, %68
  %72 = phi float [ %69, %68 ], [ 0.000000e+00, %70 ]
  %73 = fmul float %72, 2.550000e+02
  %74 = fptoui float %73 to i8
  %75 = getelementptr inbounds nuw %struct.nk_color, ptr %5, i32 0, i32 2
  store i8 %74, ptr %75, align 1, !tbaa !52
  %76 = load float, ptr %9, align 4, !tbaa !4
  %77 = fcmp olt float 1.000000e+00, %76
  br i1 %77, label %78, label %79

78:                                               ; preds = %71
  br label %81

79:                                               ; preds = %71
  %80 = load float, ptr %9, align 4, !tbaa !4
  br label %81

81:                                               ; preds = %79, %78
  %82 = phi float [ 1.000000e+00, %78 ], [ %80, %79 ]
  %83 = fcmp olt float 0.000000e+00, %82
  br i1 %83, label %84, label %92

84:                                               ; preds = %81
  %85 = load float, ptr %9, align 4, !tbaa !4
  %86 = fcmp olt float 1.000000e+00, %85
  br i1 %86, label %87, label %88

87:                                               ; preds = %84
  br label %90

88:                                               ; preds = %84
  %89 = load float, ptr %9, align 4, !tbaa !4
  br label %90

90:                                               ; preds = %88, %87
  %91 = phi float [ 1.000000e+00, %87 ], [ %89, %88 ]
  br label %93

92:                                               ; preds = %81
  br label %93

93:                                               ; preds = %92, %90
  %94 = phi float [ %91, %90 ], [ 0.000000e+00, %92 ]
  %95 = fmul float %94, 2.550000e+02
  %96 = fptoui float %95 to i8
  %97 = getelementptr inbounds nuw %struct.nk_color, ptr %5, i32 0, i32 3
  store i8 %96, ptr %97, align 1, !tbaa !53
  %98 = load i32, ptr %5, align 1
  ret i32 %98
}