; Function Attrs: mustprogress nofree norecurse nosync nounwind willreturn memory(none) uwtable
define i32 @nk_rgba_f(float noundef %0, float noundef %1, float noundef %2, float noundef %3) local_unnamed_addr #0 {
  %5 = fcmp ogt float %0, 1.000000e+00
  %6 = select i1 %5, float 1.000000e+00, float %0
  %7 = fcmp ogt float %6, 0.000000e+00
  %8 = fmul float %6, 2.550000e+02
  %9 = fptoui float %8 to i8
  %10 = zext i8 %9 to i32
  %.sroa.0.0.insert.ext = select i1 %7, i32 %10, i32 0
  %11 = fcmp ogt float %1, 1.000000e+00
  %12 = select i1 %11, float 1.000000e+00, float %1
  %13 = fcmp ogt float %12, 0.000000e+00
  %14 = fmul float %12, 2.550000e+02
  %15 = fptoui float %14 to i8
  %16 = zext i8 %15 to i32
  %17 = shl nuw nsw i32 %16, 8
  %.sroa.2.0.insert.ext = select i1 %13, i32 %17, i32 0
  %18 = fcmp ogt float %2, 1.000000e+00
  %19 = select i1 %18, float 1.000000e+00, float %2
  %20 = fcmp ogt float %19, 0.000000e+00
  %21 = fmul float %19, 2.550000e+02
  %22 = fptoui float %21 to i8
  %23 = zext i8 %22 to i32
  %24 = shl nuw nsw i32 %23, 16
  %.sroa.3.0.insert.ext = select i1 %20, i32 %24, i32 0
  %25 = fcmp ogt float %3, 1.000000e+00
  %26 = select i1 %25, float 1.000000e+00, float %3
  %27 = fcmp ogt float %26, 0.000000e+00
  %28 = fmul float %26, 2.550000e+02
  %29 = fptoui float %28 to i8
  %30 = zext i8 %29 to i32
  %31 = shl nuw i32 %30, 24
  %.sroa.4.0.insert.ext = select i1 %27, i32 %31, i32 0
  %.sroa.3.0.insert.insert = or disjoint i32 %.sroa.2.0.insert.ext, %.sroa.0.0.insert.ext
  %.sroa.2.0.insert.insert = or disjoint i32 %.sroa.3.0.insert.insert, %.sroa.3.0.insert.ext
  %.sroa.0.0.insert.insert = or disjoint i32 %.sroa.2.0.insert.insert, %.sroa.4.0.insert.ext
  ret i32 %.sroa.0.0.insert.insert
}